target datalayout = "e-m:e-p270:32:32-p271:32:32-p272:64:64-i64:64-i128:128-f80:128-n8:16:32:64-S128"
target triple = "x86_64-pc-linux-gnu"

@.str.1 = private unnamed_addr constant [34 x i8] c"../openssl/crypto/conf/conf_def.c\00", align 1
@.str.9 = private unnamed_addr constant [2 x i8] c"/\00", align 1
@.str.13 = private unnamed_addr constant [6 x i8] c".conf\00", align 1
@.str.14 = private unnamed_addr constant [5 x i8] c".cnf\00", align 1
@.str.15 = private unnamed_addr constant [2 x i8] c"r\00", align 1

; Function Attrs: nounwind uwtable
define internal ptr @get_next_file(ptr noundef %0, ptr noundef %1) #0 {
  %3 = alloca ptr, align 8
  %4 = alloca ptr, align 8
  %5 = alloca ptr, align 8
  %6 = alloca ptr, align 8
  %7 = alloca i64, align 8
  %8 = alloca i64, align 8
  %9 = alloca i64, align 8
  %10 = alloca ptr, align 8
  %11 = alloca ptr, align 8
  %12 = alloca i32, align 4
  store ptr %0, ptr %4, align 8, !tbaa !29
  store ptr %1, ptr %5, align 8, !tbaa !46
  call void @llvm.lifetime.start.p0(i64 8, ptr %6) #9
  call void @llvm.lifetime.start.p0(i64 8, ptr %7) #9
  %13 = load ptr, ptr %4, align 8, !tbaa !29
  %14 = call i64 @strlen(ptr noundef %13) #10
  store i64 %14, ptr %7, align 8, !tbaa !26
  br label %15

15:                                               ; preds = %85, %2
  %16 = load ptr, ptr %5, align 8, !tbaa !46
  %17 = load ptr, ptr %4, align 8, !tbaa !29
  %18 = call ptr @OPENSSL_DIR_read(ptr noundef %16, ptr noundef %17)
  store ptr %18, ptr %6, align 8, !tbaa !29
  %19 = icmp ne ptr %18, null
  br i1 %19, label %20, label %86

20:                                               ; preds = %15
  call void @llvm.lifetime.start.p0(i64 8, ptr %8) #9
  %21 = load ptr, ptr %6, align 8, !tbaa !29
  %22 = call i64 @strlen(ptr noundef %21) #10
  store i64 %22, ptr %8, align 8, !tbaa !26
  %23 = load i64, ptr %8, align 8, !tbaa !26
  %24 = icmp ugt i64 %23, 5
  br i1 %24, label %25, label %32

25:                                               ; preds = %20
  %26 = load ptr, ptr %6, align 8, !tbaa !29
  %27 = load i64, ptr %8, align 8, !tbaa !26
  %28 = getelementptr inbounds nuw i8, ptr %26, i64 %27
  %29 = getelementptr inbounds i8, ptr %28, i64 -5
  %30 = call i32 @OPENSSL_strcasecmp(ptr noundef %29, ptr noundef @.str.13)
  %31 = icmp eq i32 %30, 0
  br i1 %31, label %42, label %32

32:                                               ; preds = %25, %20
  %33 = load i64, ptr %8, align 8, !tbaa !26
  %34 = icmp ugt i64 %33, 4
  br i1 %34, label %35, label %82

35:                                               ; preds = %32
  %36 = load ptr, ptr %6, align 8, !tbaa !29
  %37 = load i64, ptr %8, align 8, !tbaa !26
  %38 = getelementptr inbounds nuw i8, ptr %36, i64 %37
  %39 = getelementptr inbounds i8, ptr %38, i64 -4
  %40 = call i32 @OPENSSL_strcasecmp(ptr noundef %39, ptr noundef @.str.14)
  %41 = icmp eq i32 %40, 0
  br i1 %41, label %42, label %82

42:                                               ; preds = %35, %25
  call void @llvm.lifetime.start.p0(i64 8, ptr %9) #9
  call void @llvm.lifetime.start.p0(i64 8, ptr %10) #9
  call void @llvm.lifetime.start.p0(i64 8, ptr %11) #9
  %43 = load i64, ptr %7, align 8, !tbaa !26
  %44 = load i64, ptr %8, align 8, !tbaa !26
  %45 = add i64 %43, %44
  %46 = add i64 %45, 2
  store i64 %46, ptr %9, align 8, !tbaa !26
  %47 = load i64, ptr %9, align 8, !tbaa !26
  %48 = call noalias ptr @CRYPTO_zalloc(i64 noundef %47, ptr noundef @.str.1, i32 noundef 859)
  store ptr %48, ptr %10, align 8, !tbaa !29
  %49 = load ptr, ptr %10, align 8, !tbaa !29
  %50 = icmp eq ptr %49, null
  br i1 %50, label %51, label %52

51:                                               ; preds = %42
  store i32 3, ptr %12, align 4
  br label %79

52:                                               ; preds = %42
  %53 = load ptr, ptr %10, align 8, !tbaa !29
  %54 = getelementptr inbounds i8, ptr %53, i64 0
  %55 = load i8, ptr %54, align 1, !tbaa !37
  %56 = sext i8 %55 to i32
  %57 = icmp eq i32 %56, 0
  br i1 %57, label %58, label %66

58:                                               ; preds = %52
  %59 = load ptr, ptr %10, align 8, !tbaa !29
  %60 = load ptr, ptr %4, align 8, !tbaa !29
  %61 = load i64, ptr %9, align 8, !tbaa !26
  %62 = call i64 @OPENSSL_strlcpy(ptr noundef %59, ptr noundef %60, i64 noundef %61)
  %63 = load ptr, ptr %10, align 8, !tbaa !29
  %64 = load i64, ptr %9, align 8, !tbaa !26
  %65 = call i64 @OPENSSL_strlcat(ptr noundef %63, ptr noundef @.str.9, i64 noundef %64)
  br label %66

66:                                               ; preds = %58, %52
  %67 = load ptr, ptr %10, align 8, !tbaa !29
  %68 = load ptr, ptr %6, align 8, !tbaa !29
  %69 = load i64, ptr %9, align 8, !tbaa !26
  %70 = call i64 @OPENSSL_strlcat(ptr noundef %67, ptr noundef %68, i64 noundef %69)
  %71 = load ptr, ptr %10, align 8, !tbaa !29
  %72 = call ptr @BIO_new_file(ptr noundef %71, ptr noundef @.str.15)
  store ptr %72, ptr %11, align 8, !tbaa !19
  %73 = load ptr, ptr %10, align 8, !tbaa !29
  call void @CRYPTO_free(ptr noundef %73, ptr noundef @.str.1, i32 noundef 881)
  %74 = load ptr, ptr %11, align 8, !tbaa !19
  %75 = icmp ne ptr %74, null
  br i1 %75, label %76, label %78

76:                                               ; preds = %66
  %77 = load ptr, ptr %11, align 8, !tbaa !19
  store ptr %77, ptr %3, align 8
  store i32 1, ptr %12, align 4
  br label %79

78:                                               ; preds = %66
  store i32 0, ptr %12, align 4
  br label %79

79:                                               ; preds = %78, %76, %51
  call void @llvm.lifetime.end.p0(i64 8, ptr %11) #9
  call void @llvm.lifetime.end.p0(i64 8, ptr %10) #9
  call void @llvm.lifetime.end.p0(i64 8, ptr %9) #9
  %80 = load i32, ptr %12, align 4
  switch i32 %80, label %83 [
    i32 0, label %81
  ]

81:                                               ; preds = %79
  br label %82

82:                                               ; preds = %81, %35, %32
  store i32 0, ptr %12, align 4
  br label %83

83:                                               ; preds = %82, %79
  call void @llvm.lifetime.end.p0(i64 8, ptr %8) #9
  %84 = load i32, ptr %12, align 4
  switch i32 %84, label %90 [
    i32 0, label %85
    i32 3, label %86
  ]

85:                                               ; preds = %83
  br label %15, !llvm.loop !48

86:                                               ; preds = %83, %15
  %87 = load ptr, ptr %5, align 8, !tbaa !46
  %88 = call i32 @OPENSSL_DIR_end(ptr noundef %87)
  %89 = load ptr, ptr %5, align 8, !tbaa !46
  store ptr null, ptr %89, align 8, !tbaa !33
  store ptr null, ptr %3, align 8
  store i32 1, ptr %12, align 4
  br label %90

90:                                               ; preds = %86, %83
  call void @llvm.lifetime.end.p0(i64 8, ptr %7) #9
  call void @llvm.lifetime.end.p0(i64 8, ptr %6) #9
  %91 = load ptr, ptr %3, align 8
  ret ptr %91
}