; Function Attrs: nounwind uwtable
define internal fastcc noundef ptr @get_next_file(ptr noundef %0, ptr noundef nonnull %1) unnamed_addr #1 {
  %3 = tail call i64 @strlen(ptr noundef nonnull dereferenceable(1) %0) #16
  %4 = add i64 %3, 2
  %5 = tail call ptr @OPENSSL_DIR_read(ptr noundef nonnull %1, ptr noundef nonnull %0) #15
  %.not50 = icmp eq ptr %5, null
  br i1 %.not50, label %.thread46, label %.lr.ph

.lr.ph:                                           ; preds = %2, %.backedge
  %6 = phi ptr [ %33, %.backedge ], [ %5, %2 ]
  %7 = tail call i64 @strlen(ptr noundef nonnull dereferenceable(1) %6) #16
  %8 = icmp ugt i64 %7, 5
  br i1 %8, label %9, label %14

9:                                                ; preds = %.lr.ph
  %10 = getelementptr inbounds nuw i8, ptr %6, i64 %7
  %11 = getelementptr inbounds i8, ptr %10, i64 -5
  %12 = tail call i32 @OPENSSL_strcasecmp(ptr noundef nonnull %11, ptr noundef nonnull @.str.13) #15
  %13 = icmp eq i32 %12, 0
  br i1 %13, label %20, label %.thread

14:                                               ; preds = %.lr.ph
  %15 = icmp eq i64 %7, 5
  br i1 %15, label %.thread, label %.backedge

.thread:                                          ; preds = %9, %14
  %16 = getelementptr inbounds nuw i8, ptr %6, i64 %7
  %17 = getelementptr inbounds i8, ptr %16, i64 -4
  %18 = tail call i32 @OPENSSL_strcasecmp(ptr noundef nonnull %17, ptr noundef nonnull @.str.14) #15
  %19 = icmp eq i32 %18, 0
  br i1 %19, label %20, label %.backedge

20:                                               ; preds = %.thread, %9
  %21 = add i64 %4, %7
  %22 = tail call noalias ptr @CRYPTO_zalloc(i64 noundef %21, ptr noundef nonnull @.str.1, i32 noundef 859) #15
  %23 = icmp eq ptr %22, null
  br i1 %23, label %.thread46, label %24

24:                                               ; preds = %20
  %25 = load i8, ptr %22, align 1, !tbaa !23
  %26 = icmp eq i8 %25, 0
  br i1 %26, label %27, label %30

27:                                               ; preds = %24
  %28 = tail call i64 @OPENSSL_strlcpy(ptr noundef nonnull %22, ptr noundef nonnull %0, i64 noundef %21) #15
  %29 = tail call i64 @OPENSSL_strlcat(ptr noundef nonnull %22, ptr noundef nonnull @.str.9, i64 noundef %21) #15
  br label %30

30:                                               ; preds = %24, %27
  %31 = tail call i64 @OPENSSL_strlcat(ptr noundef nonnull %22, ptr noundef nonnull %6, i64 noundef %21) #15
  %32 = tail call ptr @BIO_new_file(ptr noundef nonnull %22, ptr noundef nonnull @.str.15) #15
  %.fr = freeze ptr %32
  tail call void @CRYPTO_free(ptr noundef nonnull %22, ptr noundef nonnull @.str.1, i32 noundef 881) #15
  %.not38.not = icmp eq ptr %.fr, null
  br i1 %.not38.not, label %.backedge, label %.loopexit

.backedge:                                        ; preds = %.thread, %14, %30
  %33 = tail call ptr @OPENSSL_DIR_read(ptr noundef nonnull %1, ptr noundef nonnull %0) #15
  %.not = icmp eq ptr %33, null
  br i1 %.not, label %.thread46, label %.lr.ph

.thread46:                                        ; preds = %.backedge, %20, %2
  %34 = tail call i32 @OPENSSL_DIR_end(ptr noundef nonnull %1) #15
  store ptr null, ptr %1, align 8, !tbaa !18
  br label %.loopexit

.loopexit:                                        ; preds = %30, %.thread46
  %.4 = phi ptr [ null, %.thread46 ], [ %.fr, %30 ]
  ret ptr %.4
}